target datalayout = "e-m:e-p270:32:32-p271:32:32-p272:64:64-i64:64-i128:128-f80:128-n8:16:32:64-S128"
target triple = "x86_64-pc-linux-gnu"

%struct.pxr_nc_1_0_ColorSpace = type { %struct.pxr_nc_1_0_ColorSpaceDescriptor, float, float, %struct.pxr_nc_1_0_M33f }
%struct.pxr_nc_1_0_ColorSpaceDescriptor = type { ptr, %struct.pxr_nc_1_0_Chromaticity, %struct.pxr_nc_1_0_Chromaticity, %struct.pxr_nc_1_0_Chromaticity, %struct.pxr_nc_1_0_Chromaticity, float, float }
%struct.pxr_nc_1_0_Chromaticity = type { float, float }
%struct.pxr_nc_1_0_M33f = type { [9 x float] }

; Function Attrs: nounwind uwtable
define internal zeroext i1 @CompareChromaticity(ptr noundef %0, ptr noundef %1, float noundef %2) #0 {
  %4 = alloca ptr, align 8
  %5 = alloca ptr, align 8
  %6 = alloca float, align 4
  store ptr %0, ptr %4, align 8
  store ptr %1, ptr %5, align 8
  store float %2, ptr %6, align 4
  %7 = load ptr, ptr %4, align 8
  %8 = getelementptr inbounds nuw %struct.pxr_nc_1_0_Chromaticity, ptr %7, i32 0, i32 0
  %9 = load float, ptr %8, align 4
  %10 = load ptr, ptr %5, align 8
  %11 = getelementptr inbounds nuw %struct.pxr_nc_1_0_Chromaticity, ptr %10, i32 0, i32 0
  %12 = load float, ptr %11, align 4
  %13 = fsub float %9, %12
  %14 = call float @llvm.fabs.f32(float %13)
  %15 = load float, ptr %6, align 4
  %16 = fcmp olt float %14, %15
  br i1 %16, label %17, label %28

17:                                               ; preds = %3
  %18 = load ptr, ptr %4, align 8
  %19 = getelementptr inbounds nuw %struct.pxr_nc_1_0_Chromaticity, ptr %18, i32 0, i32 1
  %20 = load float, ptr %19, align 4
  %21 = load ptr, ptr %5, align 8
  %22 = getelementptr inbounds nuw %struct.pxr_nc_1_0_Chromaticity, ptr %21, i32 0, i32 1
  %23 = load float, ptr %22, align 4
  %24 = fsub float %20, %23
  %25 = call float @llvm.fabs.f32(float %24)
  %26 = load float, ptr %6, align 4
  %27 = fcmp olt float %25, %26
  br label %28

28:                                               ; preds = %17, %3
  %29 = phi i1 [ false, %3 ], [ %27, %17 ]
  ret i1 %29
}

; Function Attrs: nounwind uwtable
define ptr @pxr_nc_1_0_MatchLinearColorSpace(<2 x float> %0, <2 x float> %1, <2 x float> %2, <2 x float> %3, float noundef %4) #6 {
  %6 = alloca ptr, align 8
  %7 = alloca %struct.pxr_nc_1_0_Chromaticity, align 4
  %8 = alloca %struct.pxr_nc_1_0_Chromaticity, align 4
  %9 = alloca %struct.pxr_nc_1_0_Chromaticity, align 4
  %10 = alloca %struct.pxr_nc_1_0_Chromaticity, align 4
  %11 = alloca float, align 4
  %12 = alloca i64, align 8
  store <2 x float> %0, ptr %7, align 4
  store <2 x float> %1, ptr %8, align 4
  store <2 x float> %2, ptr %9, align 4
  store <2 x float> %3, ptr %10, align 4
  store float %4, ptr %11, align 4
  store i64 0, ptr %12, align 8
  br label %13

13:                                               ; preds = %59, %5
  %14 = load i64, ptr %12, align 8
  %15 = icmp ult i64 %14, 18
  br i1 %15, label %16, label %62

16:                                               ; preds = %13
  %17 = load i64, ptr %12, align 8
  %18 = getelementptr inbounds [18 x %struct.pxr_nc_1_0_ColorSpace], ptr @_colorSpaces, i64 0, i64 %17
  %19 = getelementptr inbounds nuw %struct.pxr_nc_1_0_ColorSpace, ptr %18, i32 0, i32 0
  %20 = getelementptr inbounds nuw %struct.pxr_nc_1_0_ColorSpaceDescriptor, ptr %19, i32 0, i32 5
  %21 = load float, ptr %20, align 8
  %22 = fcmp une float %21, 1.000000e+00
  br i1 %22, label %23, label %24

23:                                               ; preds = %16
  br label %59

24:                                               ; preds = %16
  %25 = load i64, ptr %12, align 8
  %26 = getelementptr inbounds [18 x %struct.pxr_nc_1_0_ColorSpace], ptr @_colorSpaces, i64 0, i64 %25
  %27 = getelementptr inbounds nuw %struct.pxr_nc_1_0_ColorSpace, ptr %26, i32 0, i32 0
  %28 = getelementptr inbounds nuw %struct.pxr_nc_1_0_ColorSpaceDescriptor, ptr %27, i32 0, i32 1
  %29 = load float, ptr %11, align 4
  %30 = call zeroext i1 @CompareChromaticity(ptr noundef %28, ptr noundef %7, float noundef %29)
  br i1 %30, label %31, label %58

31:                                               ; preds = %24
  %32 = load i64, ptr %12, align 8
  %33 = getelementptr inbounds [18 x %struct.pxr_nc_1_0_ColorSpace], ptr @_colorSpaces, i64 0, i64 %32
  %34 = getelementptr inbounds nuw %struct.pxr_nc_1_0_ColorSpace, ptr %33, i32 0, i32 0
  %35 = getelementptr inbounds nuw %struct.pxr_nc_1_0_ColorSpaceDescriptor, ptr %34, i32 0, i32 2
  %36 = load float, ptr %11, align 4
  %37 = call zeroext i1 @CompareChromaticity(ptr noundef %35, ptr noundef %8, float noundef %36)
  br i1 %37, label %38, label %58

38:                                               ; preds = %31
  %39 = load i64, ptr %12, align 8
  %40 = getelementptr inbounds [18 x %struct.pxr_nc_1_0_ColorSpace], ptr @_colorSpaces, i64 0, i64 %39
  %41 = getelementptr inbounds nuw %struct.pxr_nc_1_0_ColorSpace, ptr %40, i32 0, i32 0
  %42 = getelementptr inbounds nuw %struct.pxr_nc_1_0_ColorSpaceDescriptor, ptr %41, i32 0, i32 3
  %43 = load float, ptr %11, align 4
  %44 = call zeroext i1 @CompareChromaticity(ptr noundef %42, ptr noundef %9, float noundef %43)
  br i1 %44, label %45, label %58

45:                                               ; preds = %38
  %46 = load i64, ptr %12, align 8
  %47 = getelementptr inbounds [18 x %struct.pxr_nc_1_0_ColorSpace], ptr @_colorSpaces, i64 0, i64 %46
  %48 = getelementptr inbounds nuw %struct.pxr_nc_1_0_ColorSpace, ptr %47, i32 0, i32 0
  %49 = getelementptr inbounds nuw %struct.pxr_nc_1_0_ColorSpaceDescriptor, ptr %48, i32 0, i32 4
  %50 = load float, ptr %11, align 4
  %51 = call zeroext i1 @CompareChromaticity(ptr noundef %49, ptr noundef %10, float noundef %50)
  br i1 %51, label %52, label %58

52:                                               ; preds = %45
  %53 = load i64, ptr %12, align 8
  %54 = getelementptr inbounds [18 x %struct.pxr_nc_1_0_ColorSpace], ptr @_colorSpaces, i64 0, i64 %53
  %55 = getelementptr inbounds nuw %struct.pxr_nc_1_0_ColorSpace, ptr %54, i32 0, i32 0
  %56 = getelementptr inbounds nuw %struct.pxr_nc_1_0_ColorSpaceDescriptor, ptr %55, i32 0, i32 0
  %57 = load ptr, ptr %56, align 16
  store ptr %57, ptr %6, align 8
  br label %63

58:                                               ; preds = %45, %38, %31, %24
  br label %59

59:                                               ; preds = %58, %23
  %60 = load i64, ptr %12, align 8
  %61 = add i64 %60, 1
  store i64 %61, ptr %12, align 8
  br label %13, !llvm.loop !15

62:                                               ; preds = %13
  store ptr null, ptr %6, align 8
  br label %63

63:                                               ; preds = %62, %52
  %64 = load ptr, ptr %6, align 8
  ret ptr %64
}